(dp0
S'METTS MARK'
p1
(dp2
S'salary'
p3
F0.329165684296536
sS'frac_from_poi'
p4
F1.3103448275862069
sS'total_payments'
p5
F0.010253274646850635
sS'loan_advances'
p6
F0.0
sS'bonus'
p7
F0.075
sS'total_stock_value'
p8
F0.011913277759404088
sS'exercised_stock_options'
p9
F0.0
sS'net_worth'
p10
F1550850.0
sS'poi'
p11
I00
ssS'BAXTER JOHN C'
p12
(dp13
g3
F0.2403600244047737
sg4
F0.0
sg5
F0.05440666533584129
sg6
F0.0
sg7
F0.15
sg8
F0.21631523370824213
sg9
F0.1944936914644951
sg10
F12090360.0
sg11
I00
ssS'ELLIOTT STEVEN'
p14
(dp15
g3
F0.15382656412822224
sg4
F0.0
sg5
F0.002044471062239377
sg6
F0.0
sg7
F0.04375
sg8
F0.13599520245111402
sg9
F0.14237479119832827
sg10
F7199676.0
sg11
I00
ssS'CORDES WILLIAM R'
p16
(dp17
g3
F0.0
sg4
F0.8333333333333334
sg5
F0.0
sg6
F0.0
sg7
F0.0
sg8
F0.021139958279031854
sg9
F0.018977603138476615
sg10
F1038185.0
sg11
I00
ssS'HANNON KEVIN P'
p18
(dp19
g3
F0.2189347568251477
sg4
F1.0
sg5
F0.002787587649967589
sg6
F0.0
sg7
F0.1875
sg8
F0.1301375452916202
sg9
F0.1612303216360921
sg10
F8134358.0
sg11
I01
ssS'MORDAUNT KRISTINA M'
p20
(dp21
g3
F0.24035192547545214
sg4
F0.0
sg5
F0.006069170107360102
sg6
F0.0
sg7
F0.040625
sg8
F0.00424576804785364
sg9
F0.0
sg10
F800603.0
sg11
I00
ssS'MEYER ROCKFORD G'
p22
(dp23
g3
F0.0
sg4
F0.0
sg5
F0.017846955333330958
sg6
F0.0
sg7
F0.0
sg8
F0.019463886821763955
sg9
F0.014367167899369006
sg10
F955873.0
sg11
I00
ssS'MCMAHON JEFFREY'
p24
(dp25
g3
F0.3333591299230242
sg4
F1.2083333333333333
sg5
F0.03958844336430838
sg6
F0.0
sg7
F0.325
sg8
F0.03385975074199638
sg9
F0.03214282220671575
sg10
F4633303.0
sg11
I00
ssS'HORTON STANLEY C'
p26
(dp27
g3
F0.0
sg4
F0.04100652376514446
sg5
F0.030242045771566962
sg6
F0.0
sg7
F0.0
sg8
F0.14776290927495575
sg9
F0.15169764609595607
sg10
F7256648.0
sg11
I00
ssS'PIPER GREGORY F'
p28
(dp29
g3
F0.1773584532124853
sg4
F0.2747747747747748
sg5
F0.016778992596093736
sg6
F0.0
sg7
F0.049999999999999996
sg8
F0.017924834083953196
sg9
F0.025628279921407655
sg10
F1477381.0
sg11
I00
ssS'HUMPHREY GENE E'
p30
(dp31
g3
F0.1176360485143864
sg4
F0.5882352941176471
sg5
F0.029936560417806166
sg6
F0.0
sg7
F0.0
sg8
F0.04648267917635969
sg9
F0.0664592546770177
sg10
F2413492.0
sg11
I00
ssS'UMANOFF ADAM S'
p32
(dp33
g3
F0.2596957682194414
sg4
F0.6666666666666666
sg5
F0.010916022205645004
sg6
F0.0
sg7
F0.09859375
sg8
F0.0
sg9
F0.0
sg10
F1077339.0
sg11
I00
ssS'BLACHMAN JEREMY M'
p34
(dp35
g3
F0.22366183190582203
sg4
F1.7857142857142858
sg5
F0.01945576503807805
sg6
F0.0
sg7
F0.10625
sg8
F0.01943295630685009
sg9
F0.022280902647414214
sg10
F2052900.0
sg11
I00
ssS'SUNDE MARTIN'
p36
(dp37
g3
F0.2317067683652221
sg4
F0.9736842105263158
sg5
F0.014919487141114698
sg6
F0.0
sg7
F0.0875
sg8
F0.014231702095850876
sg9
F0.0
sg10
F1656406.0
sg11
I00
ssS'GIBBS DANA R'
p38
(dp39
g3
F0.0
sg4
F0.0
sg5
F0.009332985051447524
sg6
F0.0
sg7
F0.0
sg8
F0.04516944566856522
sg9
F0.06458164087137258
sg10
F2218275.0
sg11
I00
ssS'LOWRY CHARLES P'
p40
(dp41
g3
F0.0
sg4
F0.0
sg5
F0.0
sg6
F0.0
sg7
F0.0
sg8
F0.0075789942748614655
sg9
F0.010836172088911081
sg10
F372205.0
sg11
I00
ssS'COLWELL WESLEY'
p42
(dp43
g3
F0.2596534738107622
sg4
F6.0
sg5
F0.014391145026719008
sg6
F0.0
sg7
F0.15
sg8
F0.014217896375566742
sg9
F0.0
sg10
F2186784.0
sg11
I01
ssS'MULLER MARK S'
p44
(dp45
g3
F0.2264586621648618
sg4
F0.75
sg5
F0.03092001159175743
sg6
F0.0
sg7
F0.13749999999999998
sg8
F0.02885045305772066
sg9
F0.030753120729056713
sg10
F2768502.0
sg11
I00
ssS'JACKSON CHARLENE R'
p46
(dp47
g3
F0.25966787190733387
sg4
F0.44642857142857145
sg5
F0.005322277923054558
sg6
F0.0
sg7
F0.03125
sg8
F0.014777720369330304
sg9
F0.005387822611974991
sg10
F1264293.0
sg11
I00
ssS'WESTFAHL RICHARD K'
p48
(dp49
g3
F0.05736201674138679
sg4
F0.0
sg5
F0.00735937160476943
sg6
F0.0
sg7
F0.0
sg8
F0.007838106060430203
sg9
F0.0
sg10
F448674.0
sg11
I00
ssS'WALTERS GARETH W'
p50
(dp51
g3
F0.0
sg4
F0.0
sg5
F0.0008440534445641466
sg6
F0.0
sg7
F0.0
sg8
F0.02097999111302572
sg9
F0.02999643301996391
sg10
F1030329.0
sg11
I00
ssS'WALLS JR ROBERT H'
p52
(dp53
g3
F0.3213394189288176
sg4
F0.11643835616438356
sg5
F0.01736948238202832
sg6
F0.0
sg7
F0.10625
sg8
F0.12011785035242664
sg9
F0.1265428964576616
sg10
F7106088.0
sg11
I00
ssS'KITCHEN LOUISE'
p54
(dp55
g3
F0.2442655080998292
sg4
F0.14525462962962962
sg5
F0.03351823038116733
sg6
F0.0
sg7
F0.38749999999999996
sg8
F0.011141155182038197
sg9
F0.002359412308887661
sg10
F3918585.0
sg11
I00
ssS'CHAN RONNIE'
p56
(dp57
g3
F0.0
sg4
F0.0
sg5
F0.0
sg6
F0.0
sg7
F0.0
sg8
F0.0
sg9
F0.0
sg10
F0.0
sg11
I00
ssS'BELFER ROBERT'
p58
(dp59
g3
F0.0
sg4
F0.0
sg5
F3.172080500392657e-05
sg6
F0.0
sg7
F0.0
sg8
F0.0
sg9
F0.0
sg10
F0.0
sg11
I00
ssS'SHANKMAN JEFFREY A'
p60
(dp61
g3
F0.2736628217749613
sg4
F0.0350615441999254
sg5
F0.029342488160438867
sg6
F0.0
sg7
F0.25
sg8
F0.0421916454704063
sg9
F0.041978627000327
sg10
F4376145.0
sg11
I00
ssS'WODRASKA JOHN'
p62
(dp63
g3
F0.0
sg4
F0.0
sg5
F0.0018306622146299577
sg6
F0.0
sg7
F0.0
sg8
F0.0
sg9
F0.0
sg10
F0.0
sg11
I00
ssS'BERGSIEKER RICHARD P'
p64
(dp65
g3
F0.16910744399590374
sg4
F0.06779661016949153
sg5
F0.005975774787421601
sg6
F0.0
sg7
F0.03125
sg8
F0.013423904559874656
sg9
F0.0
sg10
F1097171.0
sg11
I00
ssS'URQUHART JOHN A'
p66
(dp67
g3
F0.0
sg4
F0.0
sg5
F0.00220796115341791
sg6
F0.0
sg7
F0.0
sg8
F0.0
sg9
F0.0
sg10
F0.0
sg11
I00
ssS'BIBI PHILIPPE A'
p68
(dp69
g3
F0.1922370862571968
sg4
F0.575
sg5
F0.01977208471245206
sg6
F0.0
sg7
F0.125
sg8
F0.03754455450060576
sg9
F0.04267257522217057
sg10
F3057441.0
sg11
I00
ssS'PIRO JIM'
p70
(dp71
g3
F0.0
sg4
F0.0
sg5
F0.0
sg6
F0.0
sg7
F0.0
sg8
F0.0009632238824788671
sg9
F0.0
sg10
F47304.0
sg11
I00
ssS'RIEKER PAULA H'
p72
(dp73
g3
F0.22425125398422327
sg4
F0.4268292682926829
sg5
F0.010613192322622738
sg6
F0.0
sg7
F0.0875
sg8
F0.03907318167973588
sg9
F0.04760742164755116
sg10
F2868088.0
sg11
I01
ssS'WHALEY DAVID A'
p74
(dp75
g3
F0.0
sg4
F0.0
sg5
F0.0
sg6
F0.0
sg7
F0.0
sg8
F0.00201013730827306
sg9
F0.002874021671587228
sg10
F98718.0
sg11
I00
ssS'BECK SALLY W'
p76
(dp77
g3
F0.2081694799947447
sg4
F0.033156804052498275
sg5
F0.009357569882357721
sg6
F0.0
sg7
F0.0875
sg8
F0.0025662146168857645
sg9
F0.0
sg10
F1057357.0
sg11
I00
ssS'HAUG DAVID L'
p78
(dp79
g3
F0.0
sg4
F0.21052631578947367
sg5
F4.5867221847382405e-06
sg6
F0.0
sg7
F0.0
sg8
F0.04514957194733024
sg9
F0.0
sg10
F2217299.0
sg11
I00
ssS'ECHOLS JOHN B'
p80
(dp81
g3
F0.16399881935608113
sg4
F0.0
sg5
F0.025997773093269894
sg6
F0.0
sg7
F0.024999999999999998
sg8
F0.02054447968907726
sg9
F0.017509935838611795
sg10
F1391186.0
sg11
I00
ssS'MENDELSOHN JOHN'
p82
(dp83
g3
F0.0
sg4
F0.0
sg5
F1.4291260701921256e-06
sg6
F0.0
sg7
F0.0
sg8
F0.0
sg9
F0.0
sg10
F0.0
sg11
I00
ssS'HICKERSON GARY J'
p84
(dp85
g3
F0.19058400479456616
sg4
F1.4814814814814814
sg5
F0.020102357678524908
sg6
F0.0
sg7
F0.2125
sg8
F0.008981781702729123
sg9
F0.0
sg10
F2352884.0
sg11
I00
ssS'CLINE KENNETH W'
p86
(dp87
g3
F0.0
sg4
F0.0
sg5
F0.0
sg6
F0.0
sg7
F0.0
sg8
F0.0038590449805435047
sg9
F0.0
sg10
F189518.0
sg11
I00
ssS'LEWIS RICHARD'
p88
(dp89
g3
F0.0
sg4
F0.38461538461538464
sg5
F0.0
sg6
F0.0
sg7
F0.0
sg8
F0.017317769277417967
sg9
F0.024760320601982324
sg10
F850477.0
sg11
I00
ssS'HAYES ROBERT E'
p90
(dp91
g3
F0.0
sg4
F1.3333333333333333
sg5
F7.687346381621292e-05
sg6
F0.0
sg7
F0.0
sg8
F0.0030832368052846506
sg9
F0.0
sg10
F151418.0
sg11
I00
ssS'KOPPER MICHAEL J'
p92
(dp93
g3
F0.20184781571876198
sg4
F0.0
sg5
F0.025614303806111315
sg6
F0.0
sg7
F0.09999999999999999
sg8
F0.020057634606078206
sg9
F0.0
sg10
F2009337.0
sg11
I01
ssS'LEFF DANIEL P'
p94
(dp95
g3
F0.24633883400614437
sg4
F1.0634920634920635
sg5
F0.025726470890106934
sg6
F0.0
sg7
F0.125
sg8
F0.0073412223047171704
sg9
F0.0
sg10
F1634274.0
sg11
I00
ssS'LAVORATO JOHN J'
p96
(dp97
g3
F0.30531883684976846
sg4
F0.20425531914893616
sg5
F0.10067379142018949
sg6
F0.0
sg7
F1.0
sg8
F0.10521555270183036
sg9
F0.12108269780610348
sg10
F13506432.0
sg11
I00
ssS'BERBERIAN DAVID'
p98
(dp99
g3
F0.19489803447984175
sg4
F0.0
sg5
F0.002206203714601863
sg6
F0.0
sg7
F0.0
sg8
F0.050776054560532365
sg9
F0.04729177361007726
sg10
F2710198.0
sg11
I00
ssS'DETMERING TIMOTHY J'
p100
(dp101
g3
F0.18942495802054968
sg4
F0.0
sg5
F0.01163176330412325
sg6
F0.0
sg7
F0.053125
sg8
F0.04129223741000778
sg9
F0.05903814863604646
sg10
F2663365.0
sg11
I00
ssS'WAKEHAM JOHN'
p102
(dp103
g3
F0.0
sg4
F0.0
sg5
F0.0020574683844723405
sg6
F0.0
sg7
F0.0
sg8
F0.0
sg9
F0.0
sg10
F0.0
sg11
I00
ssS'POWERS WILLIAM'
p104
(dp105
g3
F0.0
sg4
F0.0
sg5
F0.0
sg6
F0.0
sg7
F0.0
sg8
F0.0
sg9
F0.0
sg10
F0.0
sg11
I00
ssS'GOLD JOSEPH'
p106
(dp107
g3
F0.24555953702920474
sg4
F0.0
sg5
F0.02073172355607161
sg6
F0.0
sg7
F0.09375
sg8
F0.0178702831626535
sg9
F0.01270845813299397
sg10
F1900491.0
sg11
I00
ssS'BANNANTINE JAMES M'
p108
(dp109
g3
F0.0004292432540418157
sg4
F1.3448275862068966
sg5
F0.008847033906296046
sg6
F0.0
sg7
F0.0
sg8
F0.10677008087830771
sg9
F0.11779759420414072
sg10
F5243964.0
sg11
I00
ssS'DUNCAN JOHN H'
p110
(dp111
g3
F0.0
sg4
F0.0
sg5
F0.0007482826853468121
sg6
F0.0
sg7
F0.0
sg8
F0.007569729374080815
sg9
F0.0108229254686334
sg10
F371750.0
sg11
I00
ssS'SHAPIRO RICHARD S'
p112
(dp113
g3
F0.24213638956929892
sg4
F0.060905349794238686
sg5
F0.010211955522159068
sg6
F0.0
sg7
F0.08125
sg8
F0.02009772820967623
sg9
F0.017696232812582972
sg10
F1906077.0
sg11
I00
ssS'SHERRIFF JOHN R'
p114
(dp115
g3
F0.385850990499056
sg4
F0.30434782608695654
sg5
F0.04186362172431148
sg6
F0.0
sg7
F0.1875
sg8
F0.06371364346030972
sg9
F0.05343942818387031
sg10
F5057762.0
sg11
I00
ssS'SHELBY REX'
p116
(dp117
g3
F0.19063439813256686
sg4
F0.3333333333333333
sg5
F0.019350029021398294
sg6
F0.0
sg7
F0.024999999999999998
sg8
F0.050776054560532365
sg9
F0.04729177361007726
sg10
F2905460.0
sg11
I01
ssS'LEMAISTRE CHARLES'
p118
(dp119
g3
F0.0
sg4
F0.0
sg5
F0.0008448452576570909
sg6
F0.0
sg7
F0.0
sg8
F0.008407194954974415
sg9
F0.012020303487931193
sg10
F412878.0
sg11
I00
ssS'DEFFNER JOSEPH M'
p120
(dp121
g3
F0.1854843789651008
sg4
F1.554054054054054
sg5
F0.01167102564602461
sg6
F0.0
sg7
F0.075
sg8
F0.0032419211388749983
sg9
F0.0005059335542539643
sg10
F965332.0
sg11
I00
ssS'KISHKILL JOSEPH G'
p122
(dp123
g3
F0.15680067095130024
sg4
F0.0
sg5
F0.006806657097122626
sg6
F0.0
sg7
F0.0
sg8
F0.02106178695134632
sg9
F0.0
sg10
F1208592.0
sg11
I00
ssS'WHALLEY LAWRENCE G'
p124
(dp125
g3
F0.45926688491781387
sg4
F0.3345323741007194
sg5
F0.04516785776116798
sg6
F0.0
sg7
F0.375
sg8
F0.12378593656479227
sg9
F0.09557829561938053
sg10
F9589501.0
sg11
I00
ssS'MCCARTY DANNY J'
p126
(dp127
g3
F0.0
sg4
F0.11627906976744186
sg5
F0.0
sg6
F0.0
sg7
F0.0
sg8
F0.015453671240351114
sg9
F0.01934224911425236
sg10
F758931.0
sg11
I00
ssS'MCCONNELL MICHAEL S'
p128
(dp129
g3
F0.3284907735197407
sg4
F0.03355215171407731
sg5
F0.02029131132002166
sg6
F0.0
sg7
F0.13749999999999998
sg8
F0.06314954335849354
sg9
F0.04725142236676986
sg10
F4566317.0
sg11
I00
ssS'DELAINEY DAVID W'
p130
(dp131
g3
F0.3286032586492066
sg4
F0.021505376344086023
sg5
F0.0458477065515185
sg6
F0.0
sg7
F0.375
sg8
F0.07359509793488823
sg9
F0.06670220642694573
sg10
F6979424.0
sg11
I01
ssS'SULLIVAN-SHAKLOVITZ COLLEEN'
p132
(dp133
g3
F0.14648173511461784
sg4
F0.0
sg5
F0.009650038601371093
sg6
F0.0
sg7
F0.012499999999999999
sg8
F0.027741250991293476
sg9
F0.03966343802375098
sg10
F1625154.0
sg11
I00
ssS'WROBEL BRUCE'
p134
(dp135
g3
F0.0
sg4
F0.0
sg5
F0.0
sg6
F0.0
sg7
F0.0
sg8
F0.0028330233969491967
sg9
F0.004050554459854647
sg10
F139130.0
sg11
I00
ssS'LINDHOLM TOD A'
p136
(dp137
g3
F0.21278317006491743
sg4
F0.0
sg5
F0.008457809489827774
sg6
F0.0
sg7
F0.024999999999999998
sg8
F0.06239468811269247
sg9
F0.0742206969620463
sg10
F3500665.0
sg11
I00
ssS'MEYER JEROME J'
p138
(dp139
g3
F0.0
sg4
F0.0
sg5
F2.077060930394096e-05
sg6
F0.0
sg7
F0.0
sg8
F0.0
sg9
F0.0
sg10
F0.0
sg11
I00
ssS'LAY KENNETH L'
p140
(dp141
g3
F0.9649613321118948
sg4
F3.4166666666666665
sg5
F1.0
sg6
F1.0
sg7
F0.875
sg8
F1.0
sg9
F1.0
sg10
F57182399.0
sg11
I01
ssS'BUTTS ROBERT H'
p142
(dp143
g3
F0.23533328893920225
sg4
F0.0
sg5
F0.012278722882344889
sg6
F0.0
sg7
F0.09375
sg8
F0.008503733184866863
sg9
F0.0
sg10
F1429135.0
sg11
I00
ssS'OLSON CINDY K'
p144
(dp145
g3
F0.296131051474995
sg4
F0.38461538461538464
sg5
F0.012761294337465506
sg6
F0.0
sg7
F0.09375
sg8
F0.05308000121685818
sg9
F0.047659709405834055
sg10
F3685841.0
sg11
I00
ssS'MCDONALD REBECCA'
p146
(dp147
g3
F0.0
sg4
F4.153846153846154
sg5
F0.0
sg6
F0.0
sg7
F0.0
sg8
F0.03444030367860544
sg9
F0.022047645676722374
sg10
F1691366.0
sg11
I00
ssS'CUMBERLAND MICHAEL S'
p148
(dp149
g3
F0.16638710362490078
sg4
F0.0
sg5
F0.007801830967352358
sg6
F0.0
sg7
F0.040625
sg8
F0.004234161468853704
sg9
F0.0
sg10
F717839.0
sg11
I00
ssS'GAHN ROBERT S'
p150
(dp151
g3
F0.17278435790788457
sg4
F0.0
sg5
F0.00869628041840524
sg6
F0.0
sg7
F0.06373374999999999
sg8
F0.006487609325320151
sg9
F0.002423316334183291
sg10
F1020485.0
sg11
I00
ssS'MCCLELLAN GEORGE'
p152
(dp153
g3
F0.23704036326397648
sg4
F1.0612244897959184
sg5
F0.012734314754762013
sg6
F0.0
sg7
F0.11249999999999999
sg8
F0.019300743118347317
sg9
F0.014753678076965716
sg10
F2111274.0
sg11
I00
ssS'HERMANN ROBERT J'
p154
(dp155
g3
F0.2363654524871812
sg4
F0.0
sg5
F0.012528617163226658
sg6
F0.0
sg7
F0.0875
sg8
F0.013604783930499968
sg9
F0.005458772092451278
sg10
F1630795.0
sg11
I00
ssS'SCRIMSHAW MATTHEW'
p156
(dp157
g3
F0.0
sg4
F0.0
sg5
F0.0
sg6
F0.0
sg7
F0.0
sg8
F0.015466418114831746
sg9
F0.02211332562253875
sg10
F759557.0
sg11
I00
ssS'GATHMANN WILLIAM D'
p158
(dp159
g3
F0.0
sg4
F0.0
sg5
F0.0
sg6
F0.0
sg7
F0.0
sg8
F0.03961223600581534
sg9
F0.05105818078661284
sg10
F1945360.0
sg11
I00
ssS'HAEDICKE MARK E'
p160
(dp161
g3
F0.3366679924913926
sg4
F0.09273570324574962
sg5
F0.037264124311256586
sg6
F0.0
sg7
F0.14375
sg8
F0.01635293676381455
sg9
F0.017722813393491816
sg10
F2327219.0
sg11
I00
ssS'BOWEN JR RAYMOND M'
p162
(dp163
g3
F0.25070775643459936
sg4
F5.185185185185185
sg5
F0.025778238085122473
sg6
F0.0
sg7
F0.16874999999999998
sg8
F0.005132449596190827
sg9
F0.0
sg10
F1880656.0
sg11
I01
ssS'GILLIS JOHN'
p164
(dp165
g3
F0.0
sg4
F0.0
sg5
F0.0
sg6
F0.0
sg7
F0.0
sg8
F0.0017438579511113788
sg9
F0.00028539916171893266
sg10
F85641.0
sg11
I00
ssS'FITZGERALD JAY L'
p166
(dp167
g3
F0.17921760743229745
sg4
F0.0625
sg5
F0.013662223137120406
sg6
F0.0
sg7
F0.04375
sg8
F0.033012287213227395
sg9
F0.0193447528710521
sg10
F2170393.0
sg11
I00
ssS'MORAN MICHAEL P'
p168
(dp169
g3
F0.0
sg4
F0.0
sg5
F0.0
sg6
F0.0
sg7
F0.0
sg8
F0.004502965766008354
sg9
F0.0017333857685997687
sg10
F221141.0
sg11
I00
ssS'REDMOND BRIAN L'
p170
(dp171
g3
F0.08714447949981012
sg4
F0.9230769230769231
sg5
F0.001076952712719308
sg6
F0.0
sg7
F0.0
sg8
F0.16066608568611926
sg9
F0.218614040183084
sg10
F7987164.0
sg11
I00
ssS'BAZELIDES PHILIP J'
p172
(dp173
g3
F0.0727265855453909
sg4
F0.0
sg5
F0.008305694469667392
sg6
F0.0
sg7
F0.0
sg8
F0.03257256076848422
sg9
F0.04657107012661789
sg10
F1680459.0
sg11
I00
ssS'BELDEN TIMOTHY N'
p174
(dp175
g3
F0.1925736417645587
sg4
F0.47107438016528924
sg5
F0.05312515446993989
sg6
F0.0
sg7
F0.656249875
sg8
F0.02261664092653243
sg9
F0.027749078384590085
sg10
F6574703.0
sg11
I01
ssS'DURAN WILLIAM D'
p176
(dp177
g3
F0.18959773517940928
sg4
F8.833333333333334
sg5
F0.020213085980193102
sg6
F0.0
sg7
F0.09375
sg8
F0.03341289745049886
sg9
F0.04226891722184077
sg10
F2601602.0
sg11
I00
ssS'THORN TERENCE H'
p178
(dp179
g3
F0.1998572788677337
sg4
F0.0
sg5
F0.00880122462199205
sg6
F0.0
sg7
F0.0
sg8
F0.09810198224486633
sg9
F0.12962694256591517
sg10
F5039889.0
sg11
I00
ssS'FASTOW ANDREW S'
p180
(dp181
g3
F0.3965757726828513
sg4
F0.0
sg5
F0.023407568997361745
sg6
F0.0
sg7
F0.1625
sg8
F0.03653856953760082
sg9
F0.0
sg10
F3535110.0
sg11
I01
ssS'FOY JOE'
p182
(dp183
g3
F0.0
sg4
F0.0
sg5
F0.0017550730330254715
sg6
F0.0
sg7
F0.0
sg8
F0.006993147109234891
sg9
F0.009998548985594198
sg10
F343434.0
sg11
I00
ssS'CALGER CHRISTOPHER F'
p184
(dp185
g3
F0.21614152609025086
sg4
F1.3819444444444444
sg5
F0.015829473510052303
sg6
F0.0
sg7
F0.15625
sg8
F0.0025662146168857645
sg9
F0.0
sg10
F1616216.0
sg11
I01
ssS'RICE KENNETH D'
p186
(dp187
g3
F0.3785223593440947
sg4
F2.3333333333333335
sg5
F0.004876892714530628
sg6
F0.0
sg7
F0.21875
sg8
F0.459020631162508
sg9
F0.5762767471098494
sg10
F24713175.0
sg11
I01
ssS'KAMINSKI WINCENTY J'
p188
(dp189
g3
F0.24755817280955458
sg4
F0.002853563474387528
sg5
F0.010494623140082947
sg6
F0.0
sg7
F0.049999999999999996
sg8
F0.019874474644491505
sg9
F0.024746724620290723
sg10
F1651138.0
sg11
I00
ssS'LOCKHART EUGENE E'
p190
(dp191
g3
F0.0
sg4
F0.0
sg5
F0.0
sg6
F0.0
sg7
F0.0
sg8
F0.0
sg9
F0.0
sg10
F0.0
sg11
I00
ssS'COX DAVID'
p192
(dp193
g3
F0.28282181095659154
sg4
F0.0
sg5
F0.010635334120453485
sg6
F0.0
sg7
F0.09999999999999999
sg8
F0.010092286963991382
sg9
F0.0034223152972786145
sg10
F1609921.0
sg11
I00
ssS'OVERDYKE JR JERE C'
p194
(dp195
g3
F0.08543560541296441
sg4
F0.0
sg5
F0.00241200752496676
sg6
F0.0
sg7
F0.0
sg8
F0.14880029308851841
sg9
F0.15332826138196196
sg10
F7402535.0
sg11
I00
ssS'PEREIRA PAULO V. FERRAZ'
p196
(dp197
g3
F0.0
sg4
F0.0
sg5
F0.0002698151395493809
sg6
F0.0
sg7
F0.0
sg8
F0.0
sg9
F0.0
sg10
F0.0
sg11
I00
ssS'STABLER FRANK'
p198
(dp199
g3
F0.21552330781870635
sg4
F0.0
sg5
F0.010738598135282097
sg6
F0.0
sg7
F0.0625
sg8
F0.010420142277110618
sg9
F0.0
sg10
F1251236.0
sg11
I00
ssS'SKILLING JEFFREY K'
p200
(dp201
g3
F1.0
sg4
F0.8148148148148148
sg5
F0.08384253915996143
sg6
F0.0
sg7
F0.7
sg8
F0.5313302902919438
sg9
F0.5604339348249978
sg10
F32804930.0
sg11
I01
ssS'BLAKE JR. NORMAN P'
p202
(dp203
g3
F0.0
sg4
F0.0
sg5
F1.2350352998484652e-05
sg6
F0.0
sg7
F0.0
sg8
F0.0
sg9
F0.0
sg10
F0.0
sg11
I00
ssS'SHERRICK JEFFREY B'
p204
(dp205
g3
F0.0
sg4
F1.56
sg5
F0.0
sg6
F0.0
sg7
F0.0
sg8
F0.037313481766410556
sg9
F0.04152943556238337
sg10
F1832468.0
sg11
I00
ssS'PRENTICE JAMES'
p206
(dp207
g3
F0.0
sg4
F0.0
sg5
F0.005449489455816119
sg6
F0.0
sg7
F0.0
sg8
F0.022297663628227184
sg9
F0.025801242934747674
sg10
F1095040.0
sg11
I00
ssS'GRAY RODNEY'
p208
(dp209
g3
F0.005952713051334614
sg4
F0.0
sg5
F0.011072424604015961
sg6
F0.0
sg7
F0.0
sg8
F0.0
sg9
F0.0
sg10
F6615.0
sg11
I00
ssS'PICKERING MARK R'
p210
(dp211
g3
F0.5894553739995573
sg4
F0.1044776119402985
sg5
F0.013390235339694044
sg6
F0.004906470407850352
sg7
F0.0375
sg8
F0.0005863969509476242
sg9
F0.0008384091664981968
sg10
F983835.0
sg11
I00
ssS'THE TRAVEL AGENCY IN THE PARK'
p212
(dp213
g3
F0.0
sg4
F0.0
sg5
F0.0034964921183262697
sg6
F0.0
sg7
F0.0
sg8
F0.0
sg9
F0.0
sg10
F0.0
sg11
I00
ssS'NOLES JAMES L'
p214
(dp215
g3
F0.0
sg4
F0.0
sg5
F0.007477815255965217
sg6
F0.0
sg7
F0.0
sg8
F0.007507725807318001
sg9
F0.0
sg10
F368705.0
sg11
I00
ssS'KEAN STEVEN J'
p216
(dp217
g3
F0.3638560982238148
sg4
F0.020713123243083296
sg5
F0.016874521948880294
sg6
F0.0
sg7
F0.125
sg8
F0.12530303861459963
sg9
F0.05886879569065025
sg10
F7557980.0
sg11
I00
ssS'FOWLER PEGGY'
p218
(dp219
g3
F0.0
sg4
F0.0
sg5
F0.0
sg6
F0.0
sg7
F0.0
sg8
F0.03837802904731693
sg9
F0.03856303691026629
sg10
F1884748.0
sg11
I00
ssS'WASAFF GEORGE'
p220
(dp221
g3
F0.23396546976489707
sg4
F0.7333333333333333
sg5
F0.009988384198489079
sg6
F0.0
sg7
F0.040625
sg8
F0.04187382883000104
sg9
F0.0485688060317481
sg10
F2641423.0
sg11
I00
ssS'WHITE JR THOMAS E'
p222
(dp223
g3
F0.2857509237278832
sg4
F0.0
sg5
F0.01867866808115385
sg6
F0.0
sg7
F0.056249999999999994
sg8
F0.30837098242849464
sg9
F0.0377615727132898
sg10
F15911666.0
sg11
I00
ssS'CHRISTODOULOU DIOMEDES'
p224
(dp225
g3
F0.0
sg4
F0.0
sg5
F0.0
sg6
F0.0
sg7
F0.0
sg8
F0.123760442815831
sg9
F0.1492691766809175
sg10
F6077885.0
sg11
I00
ssS'ALLEN PHILLIP K'
p226
(dp227
g3
F0.18173547457026182
sg4
F0.0214123006833713
sg5
F0.04330292548962511
sg6
F0.0
sg7
F0.521875
sg8
F0.03521763903531165
sg9
F0.05035290743226814
sg10
F6106496.0
sg11
I00
ssS'SHARP VICTORIA T'
p228
(dp229
g3
F0.2233018794915312
sg4
F0.17647058823529413
sg5
F0.015223195743544988
sg6
F0.0
sg7
F0.075
sg8
F0.010061804422302078
sg9
F0.008183005057821643
sg10
F1342282.0
sg11
I00
ssS'JAEDICKE ROBERT'
p230
(dp231
g3
F0.0
sg4
F0.0
sg5
F0.0008087115430985846
sg6
F0.0
sg7
F0.0
sg8
F0.008791474531968775
sg9
F0.012569732538217809
sg10
F431750.0
sg11
I00
ssS'WINOKUR JR. HERBERT S'
p232
(dp233
g3
F0.0
sg4
F0.0
sg5
F0.0008207046145795212
sg6
F0.0
sg7
F0.0
sg8
F0.0
sg9
F0.0
sg10
F0.0
sg11
I00
ssS'BROWN MICHAEL'
p234
(dp235
g3
F0.0
sg4
F0.3170731707317073
sg5
F0.0004759376064029019
sg6
F0.0
sg7
F0.0
sg8
F0.0
sg9
F0.0
sg10
F0.0
sg11
I00
ssS'BADUM JAMES P'
p236
(dp237
g3
F0.0
sg4
F0.0
sg5
F0.0017619386319167323
sg6
F0.0
sg7
F0.0
sg8
F0.005249777856186667
sg9
F0.007505942637650726
sg10
F257817.0
sg11
I00
ssS'HUGHES JAMES A'
p238
(dp239
g3
F0.0
sg4
F1.0294117647058822
sg5
F0.0
sg6
F0.0
sg7
F0.0
sg8
F0.022773207568515773
sg9
F0.02197966576826438
sg10
F1118394.0
sg11
I00
ssS'REYNOLDS LAWRENCE'
p240
(dp241
g3
F0.06875001124851295
sg4
F0.0
sg5
F0.0038091520712097214
sg6
F0.0
sg7
F0.012499999999999999
sg8
F0.08596791477301258
sg9
F0.12113152106369837
sg10
F4398290.0
sg11
I00
ssS'DIMICHELE RICHARD G'
p242
(dp243
g3
F0.23647793761664707
sg4
F0.0
sg5
F0.022867475217915895
sg6
F0.0
sg7
F0.125
sg8
F0.16937016471446045
sg9
F0.23849025910505717
sg10
F9580570.0
sg11
I00
ssS'BHATNAGAR SANJAY'
p244
(dp245
g3
F0.0
sg4
F0.0
sg5
F0.001331250246898427
sg6
F0.0
sg7
F0.0
sg8
F0.3147274577735348
sg9
F0.44998594402578007
sg10
F15456290.0
sg11
I00
ssS'CARTER REBECCA C'
p246
(dp247
g3
F0.23559695408267026
sg4
F1.9333333333333333
sg5
F0.0046114132344779795
sg6
F0.0
sg7
F0.0375
sg8
F0.0
sg9
F0.0
sg10
F561809.0
sg11
I00
ssS'BUCHANAN HAROLD G'
p248
(dp249
g3
F0.22318579483792242
sg4
F0.0
sg5
F0.010183846157359545
sg6
F0.0
sg7
F0.0625
sg8
F0.02065777619005207
sg9
F0.024032105848123743
sg10
F1762522.0
sg11
I00
ssS'YEAP SOON'
p250
(dp251
g3
F0.0
sg4
F0.0
sg5
F0.0005320308046579429
sg6
F0.0
sg7
F0.0
sg8
F0.0039250192190694545
sg9
F0.005611850618649192
sg10
F192758.0
sg11
I00
ssS'MURRAY JULIA H'
p252
(dp253
g3
F0.20632832339564708
sg4
F0.24444444444444444
sg5
F0.007842754185497455
sg6
F0.0
sg7
F0.049999999999999996
sg8
F0.012165751396281635
sg9
F0.011659296693550415
sg10
F1226745.0
sg11
I00
ssS'GARLAND C KEVIN'
p254
(dp255
g3
F0.20872380671275256
sg4
F0.22727272727272727
sg5
F0.015126227608431004
sg6
F0.0
sg7
F0.10625
sg8
F0.018247843141279474
sg9
F0.01852331684658003
sg10
F1978099.0
sg11
I00
ssS'DODSON KEITH'
p256
(dp257
g3
F0.19887640853879116
sg4
F0.7142857142857143
sg5
F0.0030894325947522895
sg6
F0.0
sg7
F0.008749999999999999
sg8
F0.0
sg9
F0.0
sg10
F291003.0
sg11
I00
ssS'YEAGER F SCOTT'
p258
(dp259
g3
F0.14254385570227615
sg4
F0.0
sg5
F0.0034791494803393433
sg6
F0.0
sg7
F0.0
sg8
F0.24200242565283647
sg9
F0.24189062286016133
sg10
F12043161.0
sg11
I01
ssS'HIRKO JOSEPH'
p260
(dp261
g3
F0.0
sg4
F0.0
sg5
F0.0008796174399460223
sg6
F0.0
sg7
F0.0
sg8
F0.6264714953211844
sg9
F0.8957063016414396
sg10
F30766064.0
sg11
I01
ssS'DIETRICH JANET R'
p262
(dp263
g3
F0.22506024703534191
sg4
F4.841269841269841
sg5
F0.013619803199104502
sg6
F0.0
sg7
F0.075
sg8
F0.037977683521496344
sg9
F0.04512640245316927
sg10
F2715187.0
sg11
I00
ssS'DERRICK JR. JAMES V'
p264
(dp265
g3
F0.44307892496611945
sg4
F0.0704070407040704
sg5
F0.00532041426540897
sg6
F0.0
sg7
F0.09999999999999999
sg8
F0.1798391157106287
sg9
F0.2571274677725741
sg10
F10124288.0
sg11
I00
ssS'FREVERT MARK A'
p266
(dp267
g3
F0.9547125869959991
sg4
F11.523809523809524
sg5
F0.16659486756602535
sg6
F0.024532352039251762
sg7
F0.25
sg8
F0.29774306202486583
sg9
F0.3037557167172697
sg10
F17683117.0
sg11
I00
ssS'PAI LOU L'
p268
(dp269
g3
F0.23565994575517116
sg4
F0.0
sg5
F0.03016018967901954
sg6
F0.0
sg7
F0.125
sg8
F0.4849906774735727
sg9
F0.4473039255645913
sg10
F25079809.0
sg11
I00
ssS'BAY FRANKLIN R'
p270
(dp271
g3
F0.21567538771374423
sg4
F0.0
sg5
F0.007992445485092849
sg6
F0.0
sg7
F0.049999999999999996
sg8
F0.0012831174896525313
sg9
F0.0
sg10
F702685.0
sg11
I00
ssS'HAYSLETT RODERICK J'
p272
(dp273
g3
F0.0
sg4
F0.03298774740810556
sg5
F0.0
sg6
F0.0
sg7
F0.0
sg8
F0.007058897361148561
sg9
F0.0
sg10
F346663.0
sg11
I00
ssS'FUGH JOHN L'
p274
(dp275
g3
F0.0
sg4
F0.0
sg5
F0.0004885197095749312
sg6
F0.0
sg7
F0.0
sg8
F0.003591482790966042
sg9
F0.005134972288652648
sg10
F176378.0
sg11
I00
ssS'FALLON JAMES B'
p276
(dp277
g3
F0.27409296491003887
sg4
F0.56
sg5
F0.03549968470871702
sg6
F0.0
sg7
F0.3125
sg8
F0.04749328640854531
sg9
F0.027374126247103794
sg10
F5136987.0
sg11
I00
ssS'KOENIG MARK E'
p278
(dp279
g3
F0.27891452749946455
sg4
F0.8688524590163934
sg5
F0.0153285455099355
sg6
F0.0
sg7
F0.0875
sg8
F0.039096964985476095
sg9
F0.01955658234169037
sg10
F2930001.0
sg11
I01
ssS'SAVAGE FRANK'
p280
(dp281
g3
F0.0
sg4
F0.0
sg5
F3.621096461635453e-05
sg6
F0.0
sg7
F0.0
sg8
F0.0
sg9
F0.0
sg10
F0.0
sg11
I00
ssS'IZZO LAWRENCE L'
p282
(dp283
g3
F0.07673645544059075
sg4
F1.4736842105263157
sg5
F0.01911548818951386
sg6
F0.0
sg7
F0.0
sg8
F0.1185088730667461
sg9
F0.0630356292744369
sg10
F5905254.0
sg11
I00
ssS'TILNEY ELIZABETH A'
p284
(dp285
g3
F0.22257477561466374
sg4
F0.5263157894736842
sg5
F0.0038566415442719162
sg6
F0.0
sg7
F0.0375
sg8
F0.023784160961829465
sg9
F0.017213327998196363
sg10
F1715380.0
sg11
I00
ssS'MARTIN AMANDA K'
p286
(dp287
g3
F0.3144967235331489
sg4
F0.034782608695652174
sg5
F0.08118030904136704
sg6
F0.0
sg7
F0.0
sg8
F0.04215643884743983
sg9
F0.06027375261671699
sg10
F2419793.0
sg11
I00
ssS'BUY RICHARD B'
p288
(dp289
g3
F0.29745207683544234
sg4
F0.14814814814814814
sg5
F0.02274726447164683
sg6
F0.0
sg7
F0.11249999999999999
sg8
F0.070137742399839
sg9
F0.07403006208385232
sg10
F4675016.0
sg11
I00
ssS'GRAMM WENDY L'
p290
(dp291
g3
F0.0
sg4
F0.0
sg5
F0.0011519142376037773
sg6
F0.0
sg7
F0.0
sg8
F0.0
sg9
F0.0
sg10
F0.0
sg11
I00
ssS'CAUSEY RICHARD A'
p292
(dp293
g3
F0.3736207073424893
sg4
F1.183673469387755
sg5
F0.01804520795054119
sg6
F0.0
sg7
F0.125
sg8
F0.05094805591634369
sg9
F0.0
sg10
F3917252.0
sg11
I01
ssS'TAYLOR MITCHELL S'
p294
(dp295
g3
F0.23866104900932097
sg4
F0.0
sg5
F0.01055103499482661
sg6
F0.0
sg7
F0.075
sg8
F0.07625823766763311
sg9
F0.09261716650192335
sg10
F4610262.0
sg11
I00
ssS'DONAHUE JR JEFFREY M'
p296
(dp297
g3
F0.25070775643459936
sg4
F8.545454545454545
sg5
F0.008456563832644972
sg6
F0.0
sg7
F0.09999999999999999
sg8
F0.022011530912249826
sg9
F0.022298574512268174
sg10
F2159589.0
sg11
I00
ssS'GLISAN JR BEN F'
p298
(dp299
g3
F0.24744478779905296
sg4
F3.25
sg5
F0.01228550157492107
sg6
F0.0
sg7
F0.075
sg8
F0.015853080094883988
sg9
F0.011200759837784508
sg10
F1653521.0
sg11
I01
ss.